target datalayout = "e-m:e-p270:32:32-p271:32:32-p272:64:64-i64:64-i128:128-f80:128-n8:16:32:64-S128"
target triple = "x86_64-pc-linux-gnu"

@PyExc_TypeError = external global ptr, align 8
@.str.77 = private unnamed_addr constant [5 x i8] c"iter\00", align 1
@.str.152 = private unnamed_addr constant [31 x i8] c"iter(v, w): v must be callable\00", align 1

; Function Attrs: nounwind uwtable
define internal ptr @builtin_iter(ptr noundef %0, ptr noundef %1, i64 noundef %2) #0 {
  %4 = alloca ptr, align 8
  %5 = alloca ptr, align 8
  %6 = alloca ptr, align 8
  %7 = alloca i64, align 8
  %8 = alloca ptr, align 8
  %9 = alloca i32, align 4
  %10 = alloca ptr, align 8
  store ptr %0, ptr %5, align 8, !tbaa !4
  store ptr %1, ptr %6, align 8, !tbaa !44
  store i64 %2, ptr %7, align 8, !tbaa !40
  call void @llvm.lifetime.start.p0(i64 8, ptr %8) #9
  %11 = load i64, ptr %7, align 8, !tbaa !40
  %12 = icmp sle i64 1, %11
  br i1 %12, label %13, label %16

13:                                               ; preds = %3
  %14 = load i64, ptr %7, align 8, !tbaa !40
  %15 = icmp sle i64 %14, 2
  br i1 %15, label %21, label %16

16:                                               ; preds = %13, %3
  %17 = load i64, ptr %7, align 8, !tbaa !40
  %18 = call i32 @_PyArg_CheckPositional(ptr noundef @.str.77, i64 noundef %17, i64 noundef 1, i64 noundef 2)
  %19 = icmp ne i32 %18, 0
  br i1 %19, label %21, label %20

20:                                               ; preds = %16
  store ptr null, ptr %4, align 8
  store i32 1, ptr %9, align 4
  br label %43

21:                                               ; preds = %16, %13
  %22 = load ptr, ptr %6, align 8, !tbaa !44
  %23 = getelementptr ptr, ptr %22, i64 0
  %24 = load ptr, ptr %23, align 8, !tbaa !4
  store ptr %24, ptr %8, align 8, !tbaa !4
  %25 = load i64, ptr %7, align 8, !tbaa !40
  %26 = icmp eq i64 %25, 1
  br i1 %26, label %27, label %30

27:                                               ; preds = %21
  %28 = load ptr, ptr %8, align 8, !tbaa !4
  %29 = call ptr @PyObject_GetIter(ptr noundef %28)
  store ptr %29, ptr %4, align 8
  store i32 1, ptr %9, align 4
  br label %43

30:                                               ; preds = %21
  %31 = load ptr, ptr %8, align 8, !tbaa !4
  %32 = call i32 @PyCallable_Check(ptr noundef %31)
  %33 = icmp ne i32 %32, 0
  br i1 %33, label %36, label %34

34:                                               ; preds = %30
  %35 = load ptr, ptr @PyExc_TypeError, align 8, !tbaa !4
  call void @PyErr_SetString(ptr noundef %35, ptr noundef @.str.152)
  store ptr null, ptr %4, align 8
  store i32 1, ptr %9, align 4
  br label %43

36:                                               ; preds = %30
  call void @llvm.lifetime.start.p0(i64 8, ptr %10) #9
  %37 = load ptr, ptr %6, align 8, !tbaa !44
  %38 = getelementptr ptr, ptr %37, i64 1
  %39 = load ptr, ptr %38, align 8, !tbaa !4
  store ptr %39, ptr %10, align 8, !tbaa !4
  %40 = load ptr, ptr %8, align 8, !tbaa !4
  %41 = load ptr, ptr %10, align 8, !tbaa !4
  %42 = call ptr @PyCallIter_New(ptr noundef %40, ptr noundef %41)
  store ptr %42, ptr %4, align 8
  store i32 1, ptr %9, align 4
  call void @llvm.lifetime.end.p0(i64 8, ptr %10) #9
  br label %43

43:                                               ; preds = %36, %34, %27, %20
  call void @llvm.lifetime.end.p0(i64 8, ptr %8) #9
  %44 = load ptr, ptr %4, align 8
  ret ptr %44
}