; Function Attrs: nounwind uwtable
define internal ptr @builtin_iter(ptr readnone captures(none) %0, ptr noundef readonly captures(none) %1, i64 noundef %2) #0 {
  %4 = add i64 %2, -1
  %or.cond = icmp ult i64 %4, 2
  br i1 %or.cond, label %8, label %5

5:                                                ; preds = %3
  %6 = tail call i32 @_PyArg_CheckPositional(ptr noundef nonnull @.str.77, i64 noundef %2, i64 noundef 1, i64 noundef 2) #9
  %.not = icmp eq i32 %6, 0
  br i1 %.not, label %22, label %.thread

.thread:                                          ; preds = %5
  %7 = load ptr, ptr %1, align 8, !tbaa !39
  br label %13

8:                                                ; preds = %3
  %9 = load ptr, ptr %1, align 8, !tbaa !39
  %10 = icmp eq i64 %2, 1
  br i1 %10, label %11, label %13

11:                                               ; preds = %8
  %12 = tail call ptr @PyObject_GetIter(ptr noundef %9) #9
  br label %22

13:                                               ; preds = %.thread, %8
  %14 = phi ptr [ %7, %.thread ], [ %9, %8 ]
  %15 = tail call i32 @PyCallable_Check(ptr noundef %14) #9
  %.not11 = icmp eq i32 %15, 0
  br i1 %.not11, label %16, label %18

16:                                               ; preds = %13
  %17 = load ptr, ptr @PyExc_TypeError, align 8, !tbaa !39
  tail call void @PyErr_SetString(ptr noundef %17, ptr noundef nonnull @.str.152) #9
  br label %22

18:                                               ; preds = %13
  %19 = getelementptr i8, ptr %1, i64 8
  %20 = load ptr, ptr %19, align 8, !tbaa !39
  %21 = tail call ptr @PyCallIter_New(ptr noundef %14, ptr noundef %20) #9
  br label %22

22:                                               ; preds = %5, %18, %16, %11
  %.0 = phi ptr [ %12, %11 ], [ %21, %18 ], [ null, %16 ], [ null, %5 ]
  ret ptr %.0
}